; Function Attrs: nofree norecurse nosync nounwind memory(argmem: readwrite) uwtable
define hidden void @aom_smooth_v_predictor_16x64_c(ptr nocapture noundef writeonly %0, i64 noundef %1, ptr nocapture noundef readonly %2, ptr nocapture noundef readonly %3) local_unnamed_addr #0 {
  %5 = getelementptr i8, ptr %3, i64 63
  %6 = load i8, ptr %5, align 1
  br label %.preheader.us.i

.preheader.us.i:                                  ; preds = %._crit_edge.us.i, %4
  %indvars.iv40.i = phi i64 [ 0, %4 ], [ %indvars.iv.next41.i, %._crit_edge.us.i ]
  %.02832.us.i = phi ptr [ %0, %4 ], [ %24, %._crit_edge.us.i ]
  %7 = getelementptr inbounds i8, ptr getelementptr inbounds (i8, ptr @sm_weight_arrays, i64 64), i64 %indvars.iv40.i
  %8 = load i8, ptr %7, align 1
  %9 = sub i8 0, %8
  br label %10

10:                                               ; preds = %13, %.preheader.us.i
  %indvars.iv37.i = phi i64 [ 0, %.preheader.us.i ], [ %indvars.iv.next38.i, %13 ]
  %11 = getelementptr inbounds i8, ptr %2, i64 %indvars.iv37.i
  %12 = load i8, ptr %11, align 1
  br label %18

13:                                               ; preds = %18
  %14 = add i32 %23, 128
  %15 = lshr i32 %14, 8
  %16 = trunc i32 %15 to i8
  %17 = getelementptr inbounds i8, ptr %.02832.us.i, i64 %indvars.iv37.i
  store i8 %16, ptr %17, align 1
  %indvars.iv.next38.i = add nuw nsw i64 %indvars.iv37.i, 1
  %exitcond.not.i = icmp eq i64 %indvars.iv.next38.i, 16
  br i1 %exitcond.not.i, label %._crit_edge.us.i, label %10, !llvm.loop !21

18:                                               ; preds = %18, %10
  %19 = phi i1 [ false, %18 ], [ true, %10 ]
  %indvars.iv.i.sroa.phi.sroa.speculated = phi i8 [ %9, %18 ], [ %8, %10 ]
  %indvars.iv.i.sroa.phi.sroa.speculated8 = phi i8 [ %6, %18 ], [ %12, %10 ]
  %.02529.us.i = phi i32 [ %23, %18 ], [ 0, %10 ]
  %20 = zext i8 %indvars.iv.i.sroa.phi.sroa.speculated to i32
  %21 = zext i8 %indvars.iv.i.sroa.phi.sroa.speculated8 to i32
  %22 = mul nuw nsw i32 %21, %20
  %23 = add i32 %22, %.02529.us.i
  br i1 %19, label %18, label %13, !llvm.loop !22

._crit_edge.us.i:                                 ; preds = %13
  %24 = getelementptr inbounds i8, ptr %.02832.us.i, i64 %1
  %indvars.iv.next41.i = add nuw nsw i64 %indvars.iv40.i, 1
  %exitcond44.not.i = icmp eq i64 %indvars.iv.next41.i, 64
  br i1 %exitcond44.not.i, label %smooth_v_predictor.exit, label %.preheader.us.i, !llvm.loop !23

smooth_v_predictor.exit:                          ; preds = %._crit_edge.us.i
  ret void
}